target datalayout = "e-m:e-p270:32:32-p271:32:32-p272:64:64-i64:64-i128:128-f80:128-n8:16:32:64-S128"
target triple = "x86_64-pc-linux-gnu"

%class.cmParseDelphiCoverage = type { ptr, ptr }
%"class.cmParseDelphiCoverage::HTMLParser" = type { ptr, ptr, ptr }

@_ZTVN21cmParseDelphiCoverage10HTMLParserE = linkonce_odr dso_local unnamed_addr constant { [4 x ptr] } { [4 x ptr] [ptr null, ptr @_ZTIN21cmParseDelphiCoverage10HTMLParserE, ptr @_ZN21cmParseDelphiCoverage10HTMLParserD2Ev, ptr @_ZN21cmParseDelphiCoverage10HTMLParserD0Ev] }, comdat, align 8

; Function Attrs: mustprogress nounwind uwtable
define linkonce_odr dso_local void @_ZN21cmParseDelphiCoverage10HTMLParserD2Ev(ptr noundef nonnull align 8 dereferenceable(24) %0) unnamed_addr #4 comdat align 2 {
  %2 = alloca ptr, align 8
  store ptr %0, ptr %2, align 8
  ret void
}

; Function Attrs: mustprogress nounwind uwtable
define linkonce_odr dso_local void @_ZN21cmParseDelphiCoverage10HTMLParserC2EP7cmCTestR31cmCTestCoverageHandlerContainer(ptr noundef nonnull align 8 dereferenceable(24) %0, ptr noundef %1, ptr noundef nonnull align 8 dereferenceable(129) %2) unnamed_addr #4 comdat align 2 {
  %4 = alloca ptr, align 8
  %5 = alloca ptr, align 8
  %6 = alloca ptr, align 8
  store ptr %0, ptr %4, align 8
  store ptr %1, ptr %5, align 8
  store ptr %2, ptr %6, align 8
  %7 = load ptr, ptr %4, align 8
  store ptr getelementptr inbounds ({ [4 x ptr] }, ptr @_ZTVN21cmParseDelphiCoverage10HTMLParserE, i32 0, i32 0, i32 2), ptr %7, align 8
  %8 = getelementptr inbounds %"class.cmParseDelphiCoverage::HTMLParser", ptr %7, i32 0, i32 1
  %9 = load ptr, ptr %5, align 8
  store ptr %9, ptr %8, align 8
  %10 = getelementptr inbounds %"class.cmParseDelphiCoverage::HTMLParser", ptr %7, i32 0, i32 2
  %11 = load ptr, ptr %6, align 8
  store ptr %11, ptr %10, align 8
  ret void
}

; Function Attrs: mustprogress uwtable
define dso_local noundef zeroext i1 @_ZN21cmParseDelphiCoverage14ReadDelphiHTMLEPKc(ptr noundef nonnull align 8 dereferenceable(16) %0, ptr noundef %1) #5 align 2 personality ptr @__gxx_personality_v0 {
  %3 = alloca ptr, align 8
  %4 = alloca ptr, align 8
  %5 = alloca %"class.cmParseDelphiCoverage::HTMLParser", align 8
  %6 = alloca ptr, align 8
  %7 = alloca i32, align 4
  store ptr %0, ptr %3, align 8
  store ptr %1, ptr %4, align 8
  %8 = load ptr, ptr %3, align 8
  %9 = getelementptr inbounds %class.cmParseDelphiCoverage, ptr %8, i32 0, i32 1
  %10 = load ptr, ptr %9, align 8
  %11 = getelementptr inbounds %class.cmParseDelphiCoverage, ptr %8, i32 0, i32 0
  %12 = load ptr, ptr %11, align 8
  call void @_ZN21cmParseDelphiCoverage10HTMLParserC2EP7cmCTestR31cmCTestCoverageHandlerContainer(ptr noundef nonnull align 8 dereferenceable(24) %5, ptr noundef %10, ptr noundef nonnull align 8 dereferenceable(129) %12)
  %13 = load ptr, ptr %4, align 8
  %14 = invoke noundef zeroext i1 @_ZN21cmParseDelphiCoverage10HTMLParser9ParseFileEPKc(ptr noundef nonnull align 8 dereferenceable(24) %5, ptr noundef %13)
          to label %15 unwind label %16

15:                                               ; preds = %2
  call void @_ZN21cmParseDelphiCoverage10HTMLParserD2Ev(ptr noundef nonnull align 8 dereferenceable(24) %5) #3
  ret i1 true

16:                                               ; preds = %2
  %17 = landingpad { ptr, i32 }
          cleanup
  %18 = extractvalue { ptr, i32 } %17, 0
  store ptr %18, ptr %6, align 8
  %19 = extractvalue { ptr, i32 } %17, 1
  store i32 %19, ptr %7, align 4
  call void @_ZN21cmParseDelphiCoverage10HTMLParserD2Ev(ptr noundef nonnull align 8 dereferenceable(24) %5) #3
  br label %20

20:                                               ; preds = %16
  %21 = load ptr, ptr %6, align 8
  %22 = load i32, ptr %7, align 4
  %23 = insertvalue { ptr, i32 } poison, ptr %21, 0
  %24 = insertvalue { ptr, i32 } %23, i32 %22, 1
  resume { ptr, i32 } %24
}