; Function Attrs: mustprogress uwtable
define dso_local noundef zeroext i1 @_ZN21cmParseDelphiCoverage14ReadDelphiHTMLEPKc(ptr nocapture noundef nonnull readonly align 8 dereferenceable(16) %0, ptr noundef %1) local_unnamed_addr #4 align 2 personality ptr @__gxx_personality_v0 {
  %3 = alloca %"class.cmParseDelphiCoverage::HTMLParser", align 8
  store ptr getelementptr inbounds ({ [4 x ptr] }, ptr @_ZTVN21cmParseDelphiCoverage10HTMLParserE, i64 0, i32 0, i64 2), ptr %3, align 8
  %4 = getelementptr inbounds i8, ptr %3, i64 8
  %5 = load <2 x ptr>, ptr %0, align 8
  %6 = shufflevector <2 x ptr> %5, <2 x ptr> poison, <2 x i32> <i32 1, i32 0>
  store <2 x ptr> %6, ptr %4, align 8
  %7 = call noundef zeroext i1 @_ZN21cmParseDelphiCoverage10HTMLParser9ParseFileEPKc(ptr noundef nonnull align 8 dereferenceable(24) %3, ptr noundef %1)
  ret i1 true
}